target datalayout = "e-m:e-p270:32:32-p271:32:32-p272:64:64-i64:64-i128:128-f80:128-n8:16:32:64-S128"
target triple = "x86_64-pc-linux-gnu"

%struct._lv_array_t = type { ptr, i32, i32, i32, i8 }
%struct.lv_event_list_t = type { %struct._lv_array_t, i8 }

; Function Attrs: nounwind uwtable
define internal ptr @event_array_at(ptr noundef %0, i32 noundef %1) #0 {
  %3 = alloca ptr, align 8
  %4 = alloca i32, align 4
  store ptr %0, ptr %3, align 8, !tbaa !33
  store i32 %1, ptr %4, align 4, !tbaa !37
  %5 = load ptr, ptr %3, align 8, !tbaa !33
  %6 = getelementptr inbounds nuw %struct.lv_event_list_t, ptr %5, i32 0, i32 0
  %7 = load i32, ptr %4, align 4, !tbaa !37
  %8 = call ptr @lv_array_at(ptr noundef %6, i32 noundef %7)
  ret ptr %8
}

; Function Attrs: nounwind uwtable
define ptr @lv_event_get_dsc(ptr noundef %0, i32 noundef %1) #0 {
  %3 = alloca ptr, align 8
  %4 = alloca i32, align 4
  %5 = alloca ptr, align 8
  store ptr %0, ptr %3, align 8, !tbaa !33
  store i32 %1, ptr %4, align 4, !tbaa !37
  br label %6

6:                                                ; preds = %2
  %7 = load ptr, ptr %3, align 8, !tbaa !33
  %8 = icmp ne ptr %7, null
  br i1 %8, label %13, label %9

9:                                                ; preds = %6
  br label %10

10:                                               ; preds = %9
  br label %11

11:                                               ; preds = %10
  br label %12

12:                                               ; preds = %11, %12
  br label %12

13:                                               ; preds = %6
  br label %14

14:                                               ; preds = %13
  call void @llvm.lifetime.start.p0(i64 8, ptr %5) #4
  %15 = load ptr, ptr %3, align 8, !tbaa !33
  %16 = load i32, ptr %4, align 4, !tbaa !37
  %17 = call ptr @event_array_at(ptr noundef %15, i32 noundef %16)
  store ptr %17, ptr %5, align 8, !tbaa !52
  %18 = load ptr, ptr %5, align 8, !tbaa !52
  %19 = icmp ne ptr %18, null
  br i1 %19, label %20, label %23

20:                                               ; preds = %14
  %21 = load ptr, ptr %5, align 8, !tbaa !52
  %22 = load ptr, ptr %21, align 8, !tbaa !38
  br label %24

23:                                               ; preds = %14
  br label %24

24:                                               ; preds = %23, %20
  %25 = phi ptr [ %22, %20 ], [ null, %23 ]
  call void @llvm.lifetime.end.p0(i64 8, ptr %5) #4
  ret ptr %25
}