; Function Attrs: nounwind uwtable
define ptr @lv_event_get_dsc(ptr noundef %0, i32 noundef %1) local_unnamed_addr #2 {
  %.not = icmp eq ptr %0, null
  br i1 %.not, label %.preheader, label %3

.preheader:                                       ; preds = %2, %.preheader
  br label %.preheader

3:                                                ; preds = %2
  %4 = tail call ptr @lv_array_at(ptr noundef nonnull %0, i32 noundef %1) #12
  %.not5 = icmp eq ptr %4, null
  br i1 %.not5, label %7, label %5

5:                                                ; preds = %3
  %6 = load ptr, ptr %4, align 8, !tbaa !36
  br label %7

7:                                                ; preds = %3, %5
  %8 = phi ptr [ %6, %5 ], [ null, %3 ]
  ret ptr %8
}